; Function Attrs: nounwind uwtable
define internal i32 @mkv_check_bitstream(ptr readnone captures(none) %0, ptr noundef %1, ptr noundef readonly captures(none) %2) #0 {
  %4 = getelementptr inbounds nuw i8, ptr %1, i64 16
  %5 = load ptr, ptr %4, align 8, !tbaa !82
  %6 = getelementptr inbounds nuw i8, ptr %5, i64 4
  %7 = load i32, ptr %6, align 4, !tbaa !83
  switch i32 %7, label %20 [
    i32 86018, label %8
    i32 167, label %.sink.split
    i32 94214, label %18
  ]

8:                                                ; preds = %3
  %9 = getelementptr inbounds nuw i8, ptr %2, i64 32
  %10 = load i32, ptr %9, align 8, !tbaa !212
  %11 = icmp sgt i32 %10, 2
  br i1 %11, label %12, label %20

12:                                               ; preds = %8
  %13 = getelementptr inbounds nuw i8, ptr %2, i64 24
  %14 = load ptr, ptr %13, align 8, !tbaa !248
  %15 = load i16, ptr %14, align 1, !tbaa !50
  %16 = tail call i16 @llvm.bswap.i16(i16 %15)
  %17 = icmp ugt i16 %16, -17
  br i1 %17, label %.sink.split, label %20

18:                                               ; preds = %3
  br label %.sink.split

.sink.split:                                      ; preds = %3, %12, %18
  %.str.117.sink = phi ptr [ @.str.118, %18 ], [ @.str.116, %12 ], [ @.str.117, %3 ]
  %19 = tail call i32 @ff_stream_add_bitstream_filter(ptr noundef nonnull %1, ptr noundef nonnull %.str.117.sink, ptr noundef null) #14
  br label %20

20:                                               ; preds = %.sink.split, %3, %8, %12
  %.0 = phi i32 [ 1, %12 ], [ 1, %8 ], [ 1, %3 ], [ %19, %.sink.split ]
  ret i32 %.0
}